target datalayout = "e-m:e-p270:32:32-p271:32:32-p272:64:64-i64:64-i128:128-f80:128-n8:16:32:64-S128"
target triple = "x86_64-pc-linux-gnu"

%"class.std::filesystem::__cxx11::path" = type { %"class.std::__cxx11::basic_string", %"struct.std::filesystem::__cxx11::path::_List" }
%"class.std::__cxx11::basic_string" = type { %"struct.std::__cxx11::basic_string<char>::_Alloc_hider", i64, %union.anon }
%"struct.std::__cxx11::basic_string<char>::_Alloc_hider" = type { ptr }
%union.anon = type { i64, [8 x i8] }
%"struct.std::filesystem::__cxx11::path::_List" = type { %"class.std::unique_ptr" }
%"class.std::unique_ptr" = type { %"struct.std::__uniq_ptr_data" }
%"struct.std::__uniq_ptr_data" = type { %"class.std::__uniq_ptr_impl" }
%"class.std::__uniq_ptr_impl" = type { %"class.std::tuple" }
%"class.std::tuple" = type { %"struct.std::_Tuple_impl" }
%"struct.std::_Tuple_impl" = type { %"struct.std::_Head_base.1" }
%"struct.std::_Head_base.1" = type { ptr }

@.str = private unnamed_addr constant [8 x i8] c"not set\00", align 1
@.str.1 = private unnamed_addr constant [8 x i8] c"plain-C\00", align 1
@.str.2 = private unnamed_addr constant [8 x i8] c"SIMD4xM\00", align 1
@.str.3 = private unnamed_addr constant [9 x i8] c"SIMD2xMM\00", align 1
@.str.4 = private unnamed_addr constant [4 x i8] c"GPU\00", align 1
@.str.5 = private unnamed_addr constant [127 x i8] c"generated/home/dtcxzyw/WorkSpace/Projects/compilers/llvm-opt-benchmark/bench/gromacs/gromacs/src/gromacs/nbnxm/nbnxm_setup.cpp\00", align 1
@.str.6 = private unnamed_addr constant [29 x i8] c"Illegal kernel type selected\00", align 1

; Function Attrs: mustprogress uwtable
define noundef ptr @_ZN5Nbnxm18lookup_kernel_nameENS_10KernelTypeE(i32 noundef %0) #0 personality ptr @__gxx_personality_v0 {
  %2 = alloca ptr, align 8
  %3 = alloca i32, align 4
  %4 = alloca %"class.std::filesystem::__cxx11::path", align 8
  %5 = alloca ptr, align 8
  %6 = alloca i32, align 4
  store i32 %0, ptr %3, align 4
  %7 = load i32, ptr %3, align 4
  switch i32 %7, label %14 [
    i32 0, label %8
    i32 1, label %9
    i32 2, label %10
    i32 3, label %11
    i32 4, label %12
    i32 5, label %13
  ]

8:                                                ; preds = %1
  store ptr @.str, ptr %2, align 8
  br label %20

9:                                                ; preds = %1
  store ptr @.str.1, ptr %2, align 8
  br label %20

10:                                               ; preds = %1
  store ptr @.str.2, ptr %2, align 8
  br label %20

11:                                               ; preds = %1
  store ptr @.str.3, ptr %2, align 8
  br label %20

12:                                               ; preds = %1
  store ptr @.str.4, ptr %2, align 8
  br label %20

13:                                               ; preds = %1
  store ptr @.str.1, ptr %2, align 8
  br label %20

14:                                               ; preds = %1
  call void @_ZNSt10filesystem7__cxx114pathC2IA127_cS1_EERKT_NS1_6formatE(ptr noundef nonnull align 8 dereferenceable(40) %4, ptr noundef nonnull align 1 dereferenceable(127) @.str.5, i8 noundef zeroext 2)
  invoke void (i32, ptr, i32, ptr, ...) @_Z9gmx_fataliRKNSt10filesystem7__cxx114pathEiPKcz(i32 noundef 0, ptr noundef nonnull align 8 dereferenceable(40) %4, i32 noundef 240, ptr noundef @.str.6) #10
          to label %15 unwind label %16

15:                                               ; preds = %14
  unreachable

16:                                               ; preds = %14
  %17 = landingpad { ptr, i32 }
          cleanup
  %18 = extractvalue { ptr, i32 } %17, 0
  store ptr %18, ptr %5, align 8
  %19 = extractvalue { ptr, i32 } %17, 1
  store i32 %19, ptr %6, align 4
  call void @_ZNSt10filesystem7__cxx114pathD2Ev(ptr noundef nonnull align 8 dereferenceable(40) %4) #11
  br label %22

20:                                               ; preds = %13, %12, %11, %10, %9, %8
  %21 = load ptr, ptr %2, align 8
  ret ptr %21

22:                                               ; preds = %16
  %23 = load ptr, ptr %5, align 8
  %24 = load i32, ptr %6, align 4
  %25 = insertvalue { ptr, i32 } poison, ptr %23, 0
  %26 = insertvalue { ptr, i32 } %25, i32 %24, 1
  resume { ptr, i32 } %26
}